target datalayout = "e-m:e-p270:32:32-p271:32:32-p272:64:64-i64:64-i128:128-f80:128-n8:16:32:64-S128"
target triple = "x86_64-pc-linux-gnu"

%union.pthread_mutex_t = type { %struct.__pthread_mutex_s }
%struct.__pthread_mutex_s = type { i32, i32, i32, i32, i32, i16, i16, %struct.__pthread_internal_list }
%struct.__pthread_internal_list = type { ptr, ptr }

@cache_mutex = internal global %union.pthread_mutex_t zeroinitializer, align 8
@.str = private unnamed_addr constant [29 x i8] c"%s: pthread_mutex_lock(): %m\00", align 1
@cached_bitstr_len = internal global i64 0, align 8
@.str.2 = private unnamed_addr constant [31 x i8] c"%s: pthread_mutex_unlock(): %m\00", align 1
@.str.3 = private unnamed_addr constant [12 x i8] c"bitstring.c\00", align 1
@__func__._cache_pop = private unnamed_addr constant [11 x i8] c"_cache_pop\00", align 1
@cached_bitstr = internal global ptr null, align 8
@__func__.bit_alloc_nz = private unnamed_addr constant [13 x i8] c"bit_alloc_nz\00", align 1

; Function Attrs: nounwind uwtable
define internal ptr @_cache_pop() #0 {
  %1 = alloca ptr, align 8
  %2 = alloca i32, align 4
  %3 = alloca i32, align 4
  call void @llvm.lifetime.start.p0(i64 8, ptr %1) #12
  store ptr null, ptr %1, align 8
  br label %4

4:                                                ; preds = %0
  call void @llvm.lifetime.start.p0(i64 4, ptr %2) #12
  %5 = call i32 @pthread_mutex_lock(ptr noundef @cache_mutex) #12
  store i32 %5, ptr %2, align 4
  %6 = load i32, ptr %2, align 4
  %7 = icmp ne i32 %6, 0
  br i1 %7, label %8, label %11

8:                                                ; preds = %4
  %9 = load i32, ptr %2, align 4
  %10 = call ptr @__errno_location() #14
  store i32 %9, ptr %10, align 4
  call void (ptr, ...) @fatal_abort(ptr noundef @.str, ptr noundef @__func__._cache_pop) #15
  unreachable

11:                                               ; preds = %4
  call void @llvm.lifetime.end.p0(i64 4, ptr %2) #12
  br label %12

12:                                               ; preds = %11
  br label %13

13:                                               ; preds = %12
  %14 = load ptr, ptr @cached_bitstr, align 8
  %15 = icmp ne ptr %14, null
  br i1 %15, label %16, label %20

16:                                               ; preds = %13
  %17 = load ptr, ptr @cached_bitstr, align 8
  store ptr %17, ptr %1, align 8
  %18 = load ptr, ptr %1, align 8
  %19 = load ptr, ptr %18, align 8
  store ptr %19, ptr @cached_bitstr, align 8
  br label %20

20:                                               ; preds = %16, %13
  br label %21

21:                                               ; preds = %20
  call void @llvm.lifetime.start.p0(i64 4, ptr %3) #12
  %22 = call i32 @pthread_mutex_unlock(ptr noundef @cache_mutex) #12
  store i32 %22, ptr %3, align 4
  %23 = load i32, ptr %3, align 4
  %24 = icmp ne i32 %23, 0
  br i1 %24, label %25, label %28

25:                                               ; preds = %21
  %26 = load i32, ptr %3, align 4
  %27 = call ptr @__errno_location() #14
  store i32 %26, ptr %27, align 4
  call void (ptr, ...) @fatal_abort(ptr noundef @.str.2, ptr noundef @__func__._cache_pop) #15
  unreachable

28:                                               ; preds = %21
  call void @llvm.lifetime.end.p0(i64 4, ptr %3) #12
  br label %29

29:                                               ; preds = %28
  br label %30

30:                                               ; preds = %29
  %31 = load ptr, ptr %1, align 8
  call void @llvm.lifetime.end.p0(i64 8, ptr %1) #12
  ret ptr %31
}

; Function Attrs: nounwind uwtable
define internal ptr @bit_alloc_nz(i64 noundef %0) #0 {
  %2 = alloca i64, align 8
  %3 = alloca ptr, align 8
  store i64 %0, ptr %2, align 8
  call void @llvm.lifetime.start.p0(i64 8, ptr %3) #12
  store ptr null, ptr %3, align 8
  br label %4

4:                                                ; preds = %1
  br label %5

5:                                                ; preds = %4
  br label %6

6:                                                ; preds = %5
  %7 = load i64, ptr %2, align 8
  %8 = load i64, ptr @cached_bitstr_len, align 8
  %9 = icmp eq i64 %7, %8
  br i1 %9, label %10, label %12

10:                                               ; preds = %6
  %11 = call ptr @_cache_pop()
  store ptr %11, ptr %3, align 8
  br label %12

12:                                               ; preds = %10, %6
  %13 = load ptr, ptr %3, align 8
  %14 = icmp ne ptr %13, null
  br i1 %14, label %21, label %15

15:                                               ; preds = %12
  %16 = load i64, ptr %2, align 8
  %17 = add i64 %16, 63
  %18 = lshr i64 %17, 6
  %19 = add i64 %18, 2
  %20 = call ptr @slurm_xcalloc(i64 noundef %19, i64 noundef 8, i1 noundef zeroext false, i1 noundef zeroext false, ptr noundef @.str.3, i32 noundef 330, ptr noundef @__func__.bit_alloc_nz)
  store ptr %20, ptr %3, align 8
  br label %21

21:                                               ; preds = %15, %12
  %22 = load ptr, ptr %3, align 8
  %23 = getelementptr inbounds i64, ptr %22, i64 0
  store i64 1111704645, ptr %23, align 8
  %24 = load i64, ptr %2, align 8
  %25 = load ptr, ptr %3, align 8
  %26 = getelementptr inbounds i64, ptr %25, i64 1
  store i64 %24, ptr %26, align 8
  %27 = load ptr, ptr %3, align 8
  call void @llvm.lifetime.end.p0(i64 8, ptr %3) #12
  ret ptr %27
}

; Function Attrs: nounwind uwtable
define dso_local i64 @bit_size(ptr noundef %0) #0 {
  %2 = alloca ptr, align 8
  store ptr %0, ptr %2, align 8
  br label %3

3:                                                ; preds = %1
  br label %4

4:                                                ; preds = %3
  %5 = load ptr, ptr %2, align 8
  %6 = getelementptr inbounds i64, ptr %5, i64 1
  %7 = load i64, ptr %6, align 8
  ret i64 %7
}

; Function Attrs: nounwind uwtable
define dso_local ptr @bit_copy(ptr noundef %0) #0 {
  %2 = alloca ptr, align 8
  %3 = alloca ptr, align 8
  %4 = alloca i32, align 4
  %5 = alloca i64, align 8
  store ptr %0, ptr %2, align 8
  call void @llvm.lifetime.start.p0(i64 8, ptr %3) #12
  call void @llvm.lifetime.start.p0(i64 4, ptr %4) #12
  call void @llvm.lifetime.start.p0(i64 8, ptr %5) #12
  store i64 0, ptr %5, align 8
  br label %6

6:                                                ; preds = %1
  br label %7

7:                                                ; preds = %6
  br label %8

8:                                                ; preds = %7
  %9 = load ptr, ptr %2, align 8
  %10 = call i64 @bit_size(ptr noundef %9)
  %11 = trunc i64 %10 to i32
  store i32 %11, ptr %4, align 4
  %12 = load i32, ptr %4, align 4
  %13 = sext i32 %12 to i64
  %14 = add i64 %13, 63
  %15 = lshr i64 %14, 6
  %16 = add i64 %15, 2
  %17 = sub i64 %16, 2
  %18 = mul i64 %17, 8
  store i64 %18, ptr %5, align 8
  %19 = load i32, ptr %4, align 4
  %20 = sext i32 %19 to i64
  %21 = call ptr @bit_alloc_nz(i64 noundef %20)
  store ptr %21, ptr %3, align 8
  %22 = load ptr, ptr %3, align 8
  %23 = getelementptr inbounds i64, ptr %22, i64 2
  %24 = load ptr, ptr %2, align 8
  %25 = getelementptr inbounds i64, ptr %24, i64 2
  %26 = load i64, ptr %5, align 8
  call void @llvm.memcpy.p0.p0.i64(ptr align 8 %23, ptr align 8 %25, i64 %26, i1 false)
  %27 = load ptr, ptr %3, align 8
  call void @llvm.lifetime.end.p0(i64 8, ptr %5) #12
  call void @llvm.lifetime.end.p0(i64 4, ptr %4) #12
  call void @llvm.lifetime.end.p0(i64 8, ptr %3) #12
  ret ptr %27
}