; Function Attrs: nounwind uwtable
define dso_local noundef ptr @bit_copy(ptr noundef readonly captures(none) %0) #0 {
  %2 = getelementptr inbounds nuw i8, ptr %0, i64 8
  %3 = load i64, ptr %2, align 8
  %sext = shl i64 %3, 32
  %4 = ashr exact i64 %sext, 32
  %5 = add nsw i64 %4, 63
  %6 = load i64, ptr @cached_bitstr_len, align 8
  %7 = icmp eq i64 %4, %6
  br i1 %7, label %8, label %_cache_pop.exit.thread.i

8:                                                ; preds = %1
  %9 = tail call i32 @pthread_mutex_lock(ptr noundef nonnull @cache_mutex) #17
  %.not.i.i = icmp eq i32 %9, 0
  br i1 %.not.i.i, label %12, label %10

10:                                               ; preds = %8
  %11 = tail call ptr @__errno_location() #18
  store i32 %9, ptr %11, align 4
  tail call void (ptr, ...) @fatal_abort(ptr noundef nonnull @.str, ptr noundef nonnull @__func__._cache_pop) #19
  unreachable

12:                                               ; preds = %8
  %13 = load ptr, ptr @cached_bitstr, align 8
  %.not8.i.i = icmp eq ptr %13, null
  br i1 %.not8.i.i, label %14, label %.thread.i

14:                                               ; preds = %12
  %15 = tail call i32 @pthread_mutex_unlock(ptr noundef nonnull @cache_mutex) #17
  %.not9.i.i = icmp eq i32 %15, 0
  br i1 %.not9.i.i, label %_cache_pop.exit.thread.i, label %18

.thread.i:                                        ; preds = %12
  %16 = load ptr, ptr %13, align 8
  store ptr %16, ptr @cached_bitstr, align 8
  %17 = tail call i32 @pthread_mutex_unlock(ptr noundef nonnull @cache_mutex) #17
  %.not9.i8.i = icmp eq i32 %17, 0
  br i1 %.not9.i8.i, label %bit_alloc_nz.exit, label %18

18:                                               ; preds = %.thread.i, %14
  %19 = phi i32 [ %17, %.thread.i ], [ %15, %14 ]
  %20 = tail call ptr @__errno_location() #18
  store i32 %19, ptr %20, align 4
  tail call void (ptr, ...) @fatal_abort(ptr noundef nonnull @.str.2, ptr noundef nonnull @__func__._cache_pop) #19
  unreachable

_cache_pop.exit.thread.i:                         ; preds = %14, %1
  %21 = lshr i64 %5, 6
  %22 = add nuw nsw i64 %21, 2
  %23 = tail call ptr @slurm_xcalloc(i64 noundef %22, i64 noundef 8, i1 noundef zeroext false, i1 noundef zeroext false, ptr noundef nonnull @.str.3, i32 noundef 330, ptr noundef nonnull @__func__.bit_alloc_nz) #17
  br label %bit_alloc_nz.exit

bit_alloc_nz.exit:                                ; preds = %.thread.i, %_cache_pop.exit.thread.i
  %.1.i = phi ptr [ %23, %_cache_pop.exit.thread.i ], [ %13, %.thread.i ]
  %24 = lshr i64 %5, 3
  %25 = and i64 %24, 2305843009213693944
  store i64 1111704645, ptr %.1.i, align 8
  %26 = getelementptr inbounds nuw i8, ptr %.1.i, i64 8
  store i64 %4, ptr %26, align 8
  %27 = getelementptr inbounds nuw i8, ptr %.1.i, i64 16
  %28 = getelementptr inbounds nuw i8, ptr %0, i64 16
  tail call void @llvm.memcpy.p0.p0.i64(ptr nonnull align 8 %27, ptr nonnull align 8 %28, i64 %25, i1 false)
  ret ptr %.1.i
}